target datalayout = "e-m:e-p270:32:32-p271:32:32-p272:64:64-i64:64-i128:128-f80:128-n8:16:32:64-S128"
target triple = "x86_64-pc-linux-gnu"

%struct.VuDev = type { i32, i32, ptr, ptr, %struct.VuDevInflightInfo, i32, %union.pthread_mutex_t, i32, i64, ptr, i64, i64, i8, i16, ptr, ptr, ptr, ptr, ptr, i32, i8 }
%struct.VuDevInflightInfo = type { i32, ptr, i64 }
%union.pthread_mutex_t = type { %struct.__pthread_mutex_s }
%struct.__pthread_mutex_s = type { i32, i32, i32, i32, i32, i16, i16, %struct.__pthread_internal_list }
%struct.__pthread_internal_list = type { ptr, ptr }
%struct.VuVirtq = type { %struct.VuRing, ptr, ptr, i16, i64, i16, i16, i16, i16, i8, i8, i32, ptr, i32, i32, i32, i32, i8, %struct.vhost_vring_addr }
%struct.VuRing = type { i32, ptr, ptr, ptr, i64, i32 }
%struct.vhost_vring_addr = type { i32, i32, i64, i64, i64, i64 }
%struct.VhostUserMsg = type <{ i32, i32, i32, %union.anon, [8 x i32], i32, ptr }>
%union.anon = type { %struct.VhostUserMemory, [8 x i8] }
%struct.VhostUserMemory = type { i32, i32, [8 x %struct.VhostUserMemoryRegion] }
%struct.VhostUserMemoryRegion = type { i64, i64, i64, i64 }
%struct.VuVirtqInflight = type { i64, i16, i16, i16, i16, [0 x %struct.VuDescStateSplit] }
%struct.VuDescStateSplit = type { i8, [5 x i8], i16, i64 }
%struct.VhostUserInflight = type { i64, i64, i16, i16 }

@.str.88 = private unnamed_addr constant [47 x i8] c"Invalid set_inflight_fd message size:%d fds:%d\00", align 1
@.str.89 = private unnamed_addr constant [31 x i8] c"set_inflight_fd mmap error: %s\00", align 1

; Function Attrs: inlinehint nounwind uwtable
define internal i64 @vu_inflight_queue_size(i16 noundef zeroext %0) #3 {
  %2 = alloca i16, align 2
  store i16 %0, ptr %2, align 2
  %3 = load i16, ptr %2, align 2
  %4 = zext i16 %3 to i64
  %5 = mul i64 16, %4
  %6 = add i64 %5, 2
  %7 = add i64 %6, 64
  %8 = sub i64 %7, 1
  %9 = udiv i64 %8, 64
  %10 = mul i64 %9, 64
  ret i64 %10
}

; Function Attrs: nounwind uwtable
define internal zeroext i1 @vu_set_inflight_fd(ptr noundef %0, ptr noundef %1) #0 {
  %3 = alloca i1, align 1
  %4 = alloca ptr, align 8
  %5 = alloca ptr, align 8
  %6 = alloca i32, align 4
  %7 = alloca i32, align 4
  %8 = alloca i64, align 8
  %9 = alloca i64, align 8
  %10 = alloca i16, align 2
  %11 = alloca i16, align 2
  %12 = alloca ptr, align 8
  %13 = alloca i32, align 4
  store ptr %0, ptr %4, align 8
  store ptr %1, ptr %5, align 8
  call void @llvm.lifetime.start.p0(i64 4, ptr %6) #13
  store i32 0, ptr %6, align 4, !annotation !4
  call void @llvm.lifetime.start.p0(i64 4, ptr %7) #13
  store i32 0, ptr %7, align 4, !annotation !4
  call void @llvm.lifetime.start.p0(i64 8, ptr %8) #13
  store i64 0, ptr %8, align 8, !annotation !4
  call void @llvm.lifetime.start.p0(i64 8, ptr %9) #13
  store i64 0, ptr %9, align 8, !annotation !4
  call void @llvm.lifetime.start.p0(i64 2, ptr %10) #13
  store i16 0, ptr %10, align 2, !annotation !4
  call void @llvm.lifetime.start.p0(i64 2, ptr %11) #13
  store i16 0, ptr %11, align 2, !annotation !4
  call void @llvm.lifetime.start.p0(i64 8, ptr %12) #13
  store ptr null, ptr %12, align 8, !annotation !4
  %14 = load ptr, ptr %5, align 8
  %15 = getelementptr inbounds nuw %struct.VhostUserMsg, ptr %14, i32 0, i32 5
  %16 = load i32, ptr %15, align 1
  %17 = icmp ne i32 %16, 1
  br i1 %17, label %24, label %18

18:                                               ; preds = %2
  %19 = load ptr, ptr %5, align 8
  %20 = getelementptr inbounds nuw %struct.VhostUserMsg, ptr %19, i32 0, i32 2
  %21 = load i32, ptr %20, align 1
  %22 = zext i32 %21 to i64
  %23 = icmp ne i64 %22, 24
  br i1 %23, label %24, label %32

24:                                               ; preds = %18, %2
  %25 = load ptr, ptr %4, align 8
  %26 = load ptr, ptr %5, align 8
  %27 = getelementptr inbounds nuw %struct.VhostUserMsg, ptr %26, i32 0, i32 2
  %28 = load i32, ptr %27, align 1
  %29 = load ptr, ptr %5, align 8
  %30 = getelementptr inbounds nuw %struct.VhostUserMsg, ptr %29, i32 0, i32 5
  %31 = load i32, ptr %30, align 1
  call void (ptr, ptr, ...) @vu_panic(ptr noundef %25, ptr noundef @.str.88, i32 noundef %28, i32 noundef %31)
  store i1 false, ptr %3, align 1
  store i32 1, ptr %13, align 4
  br label %149

32:                                               ; preds = %18
  %33 = load ptr, ptr %5, align 8
  %34 = getelementptr inbounds nuw %struct.VhostUserMsg, ptr %33, i32 0, i32 4
  %35 = getelementptr inbounds [8 x i32], ptr %34, i64 0, i64 0
  %36 = load i32, ptr %35, align 1
  store i32 %36, ptr %6, align 4
  %37 = load ptr, ptr %5, align 8
  %38 = getelementptr inbounds nuw %struct.VhostUserMsg, ptr %37, i32 0, i32 3
  %39 = getelementptr inbounds nuw %struct.VhostUserInflight, ptr %38, i32 0, i32 0
  %40 = load i64, ptr %39, align 1
  store i64 %40, ptr %8, align 8
  %41 = load ptr, ptr %5, align 8
  %42 = getelementptr inbounds nuw %struct.VhostUserMsg, ptr %41, i32 0, i32 3
  %43 = getelementptr inbounds nuw %struct.VhostUserInflight, ptr %42, i32 0, i32 1
  %44 = load i64, ptr %43, align 1
  store i64 %44, ptr %9, align 8
  %45 = load ptr, ptr %5, align 8
  %46 = getelementptr inbounds nuw %struct.VhostUserMsg, ptr %45, i32 0, i32 3
  %47 = getelementptr inbounds nuw %struct.VhostUserInflight, ptr %46, i32 0, i32 2
  %48 = load i16, ptr %47, align 1
  store i16 %48, ptr %10, align 2
  %49 = load ptr, ptr %5, align 8
  %50 = getelementptr inbounds nuw %struct.VhostUserMsg, ptr %49, i32 0, i32 3
  %51 = getelementptr inbounds nuw %struct.VhostUserInflight, ptr %50, i32 0, i32 3
  %52 = load i16, ptr %51, align 1
  store i16 %52, ptr %11, align 2
  br label %53

53:                                               ; preds = %32
  br label %54

54:                                               ; preds = %53
  br label %55

55:                                               ; preds = %54
  br label %56

56:                                               ; preds = %55
  br label %57

57:                                               ; preds = %56
  br label %58

58:                                               ; preds = %57
  br label %59

59:                                               ; preds = %58
  br label %60

60:                                               ; preds = %59
  br label %61

61:                                               ; preds = %60
  br label %62

62:                                               ; preds = %61
  br label %63

63:                                               ; preds = %62
  br label %64

64:                                               ; preds = %63
  %65 = load i64, ptr %8, align 8
  %66 = load i32, ptr %6, align 4
  %67 = load i64, ptr %9, align 8
  %68 = call ptr @mmap64(ptr noundef null, i64 noundef %65, i32 noundef 3, i32 noundef 1, i32 noundef %66, i64 noundef %67) #13
  store ptr %68, ptr %12, align 8
  %69 = load ptr, ptr %12, align 8
  %70 = icmp eq ptr %69, inttoptr (i64 -1 to ptr)
  br i1 %70, label %71, label %76

71:                                               ; preds = %64
  %72 = load ptr, ptr %4, align 8
  %73 = call ptr @__errno_location() #14
  %74 = load i32, ptr %73, align 4
  %75 = call ptr @strerror(i32 noundef %74) #13
  call void (ptr, ptr, ...) @vu_panic(ptr noundef %72, ptr noundef @.str.89, ptr noundef %75)
  store i1 false, ptr %3, align 1
  store i32 1, ptr %13, align 4
  br label %149

76:                                               ; preds = %64
  %77 = load ptr, ptr %4, align 8
  %78 = getelementptr inbounds nuw %struct.VuDev, ptr %77, i32 0, i32 4
  %79 = getelementptr inbounds nuw %struct.VuDevInflightInfo, ptr %78, i32 0, i32 0
  %80 = load i32, ptr %79, align 8
  %81 = icmp ne i32 %80, 0
  br i1 %81, label %82, label %88

82:                                               ; preds = %76
  %83 = load ptr, ptr %4, align 8
  %84 = getelementptr inbounds nuw %struct.VuDev, ptr %83, i32 0, i32 4
  %85 = getelementptr inbounds nuw %struct.VuDevInflightInfo, ptr %84, i32 0, i32 0
  %86 = load i32, ptr %85, align 8
  %87 = call i32 @close(i32 noundef %86)
  br label %88

88:                                               ; preds = %82, %76
  %89 = load ptr, ptr %4, align 8
  %90 = getelementptr inbounds nuw %struct.VuDev, ptr %89, i32 0, i32 4
  %91 = getelementptr inbounds nuw %struct.VuDevInflightInfo, ptr %90, i32 0, i32 1
  %92 = load ptr, ptr %91, align 8
  %93 = icmp ne ptr %92, null
  br i1 %93, label %94, label %104

94:                                               ; preds = %88
  %95 = load ptr, ptr %4, align 8
  %96 = getelementptr inbounds nuw %struct.VuDev, ptr %95, i32 0, i32 4
  %97 = getelementptr inbounds nuw %struct.VuDevInflightInfo, ptr %96, i32 0, i32 1
  %98 = load ptr, ptr %97, align 8
  %99 = load ptr, ptr %4, align 8
  %100 = getelementptr inbounds nuw %struct.VuDev, ptr %99, i32 0, i32 4
  %101 = getelementptr inbounds nuw %struct.VuDevInflightInfo, ptr %100, i32 0, i32 2
  %102 = load i64, ptr %101, align 8
  %103 = call i32 @munmap(ptr noundef %98, i64 noundef %102) #13
  br label %104

104:                                              ; preds = %94, %88
  %105 = load i32, ptr %6, align 4
  %106 = load ptr, ptr %4, align 8
  %107 = getelementptr inbounds nuw %struct.VuDev, ptr %106, i32 0, i32 4
  %108 = getelementptr inbounds nuw %struct.VuDevInflightInfo, ptr %107, i32 0, i32 0
  store i32 %105, ptr %108, align 8
  %109 = load ptr, ptr %12, align 8
  %110 = load ptr, ptr %4, align 8
  %111 = getelementptr inbounds nuw %struct.VuDev, ptr %110, i32 0, i32 4
  %112 = getelementptr inbounds nuw %struct.VuDevInflightInfo, ptr %111, i32 0, i32 1
  store ptr %109, ptr %112, align 8
  %113 = load i64, ptr %8, align 8
  %114 = load ptr, ptr %4, align 8
  %115 = getelementptr inbounds nuw %struct.VuDev, ptr %114, i32 0, i32 4
  %116 = getelementptr inbounds nuw %struct.VuDevInflightInfo, ptr %115, i32 0, i32 2
  store i64 %113, ptr %116, align 8
  store i32 0, ptr %7, align 4
  br label %117

117:                                              ; preds = %145, %104
  %118 = load i32, ptr %7, align 4
  %119 = load i16, ptr %10, align 2
  %120 = zext i16 %119 to i32
  %121 = icmp slt i32 %118, %120
  br i1 %121, label %122, label %148

122:                                              ; preds = %117
  %123 = load ptr, ptr %12, align 8
  %124 = load ptr, ptr %4, align 8
  %125 = getelementptr inbounds nuw %struct.VuDev, ptr %124, i32 0, i32 3
  %126 = load ptr, ptr %125, align 8
  %127 = load i32, ptr %7, align 4
  %128 = sext i32 %127 to i64
  %129 = getelementptr inbounds %struct.VuVirtq, ptr %126, i64 %128
  %130 = getelementptr inbounds nuw %struct.VuVirtq, ptr %129, i32 0, i32 1
  store ptr %123, ptr %130, align 8
  %131 = load i16, ptr %11, align 2
  %132 = load ptr, ptr %4, align 8
  %133 = getelementptr inbounds nuw %struct.VuDev, ptr %132, i32 0, i32 3
  %134 = load ptr, ptr %133, align 8
  %135 = load i32, ptr %7, align 4
  %136 = sext i32 %135 to i64
  %137 = getelementptr inbounds %struct.VuVirtq, ptr %134, i64 %136
  %138 = getelementptr inbounds nuw %struct.VuVirtq, ptr %137, i32 0, i32 1
  %139 = load ptr, ptr %138, align 8
  %140 = getelementptr inbounds nuw %struct.VuVirtqInflight, ptr %139, i32 0, i32 2
  store i16 %131, ptr %140, align 2
  %141 = load ptr, ptr %12, align 8
  %142 = load i16, ptr %11, align 2
  %143 = call i64 @vu_inflight_queue_size(i16 noundef zeroext %142)
  %144 = getelementptr inbounds nuw i8, ptr %141, i64 %143
  store ptr %144, ptr %12, align 8
  br label %145

145:                                              ; preds = %122
  %146 = load i32, ptr %7, align 4
  %147 = add i32 %146, 1
  store i32 %147, ptr %7, align 4
  br label %117

148:                                              ; preds = %117
  store i1 false, ptr %3, align 1
  store i32 1, ptr %13, align 4
  br label %149

149:                                              ; preds = %148, %71, %24
  call void @llvm.lifetime.end.p0(i64 8, ptr %12) #13
  call void @llvm.lifetime.end.p0(i64 2, ptr %11) #13
  call void @llvm.lifetime.end.p0(i64 2, ptr %10) #13
  call void @llvm.lifetime.end.p0(i64 8, ptr %9) #13
  call void @llvm.lifetime.end.p0(i64 8, ptr %8) #13
  call void @llvm.lifetime.end.p0(i64 4, ptr %7) #13
  call void @llvm.lifetime.end.p0(i64 4, ptr %6) #13
  %150 = load i1, ptr %3, align 1
  ret i1 %150
}