; Function Attrs: nounwind uwtable
define internal fastcc void @vu_set_inflight_fd(ptr noundef %0, ptr noundef nonnull readonly captures(none) %1) unnamed_addr #3 {
  %3 = getelementptr inbounds nuw i8, ptr %1, i64 316
  %4 = load i32, ptr %3, align 1
  %.not = icmp eq i32 %4, 1
  %5 = getelementptr inbounds nuw i8, ptr %1, i64 8
  %6 = load i32, ptr %5, align 1
  %.not42 = icmp eq i32 %6, 24
  %or.cond = select i1 %.not, i1 %.not42, i1 false
  br i1 %or.cond, label %7, label %._crit_edge

._crit_edge:                                      ; preds = %2
  tail call void (ptr, ptr, ...) @vu_panic(ptr noundef %0, ptr noundef nonnull @.str.88, i32 noundef %6, i32 noundef %4)
  br label %.loopexit

7:                                                ; preds = %2
  %8 = getelementptr inbounds nuw i8, ptr %1, i64 284
  %9 = load i32, ptr %8, align 1
  %10 = getelementptr inbounds nuw i8, ptr %1, i64 12
  %11 = load i64, ptr %10, align 1
  %12 = getelementptr inbounds nuw i8, ptr %1, i64 20
  %13 = load i64, ptr %12, align 1
  %14 = getelementptr inbounds nuw i8, ptr %1, i64 28
  %15 = load i16, ptr %14, align 1
  %16 = getelementptr inbounds nuw i8, ptr %1, i64 30
  %17 = load i16, ptr %16, align 1
  %18 = tail call ptr @mmap64(ptr noundef null, i64 noundef %11, i32 noundef 3, i32 noundef 1, i32 noundef %9, i64 noundef %13) #21
  %19 = icmp eq ptr %18, inttoptr (i64 -1 to ptr)
  br i1 %19, label %20, label %24

20:                                               ; preds = %7
  %21 = tail call ptr @__errno_location() #22
  %22 = load i32, ptr %21, align 4
  %23 = tail call ptr @strerror(i32 noundef %22) #21
  tail call void (ptr, ptr, ...) @vu_panic(ptr noundef %0, ptr noundef nonnull @.str.89, ptr noundef %23)
  br label %.loopexit

24:                                               ; preds = %7
  %25 = getelementptr inbounds nuw i8, ptr %0, i64 24
  %26 = load i32, ptr %25, align 8
  %.not43 = icmp eq i32 %26, 0
  br i1 %.not43, label %29, label %27

27:                                               ; preds = %24
  %28 = tail call i32 @close(i32 noundef %26) #21
  br label %29

29:                                               ; preds = %27, %24
  %30 = getelementptr inbounds nuw i8, ptr %0, i64 32
  %31 = load ptr, ptr %30, align 8
  %.not44 = icmp eq ptr %31, null
  br i1 %.not44, label %36, label %32

32:                                               ; preds = %29
  %33 = getelementptr inbounds nuw i8, ptr %0, i64 40
  %34 = load i64, ptr %33, align 8
  %35 = tail call i32 @munmap(ptr noundef nonnull %31, i64 noundef %34) #21
  br label %36

36:                                               ; preds = %32, %29
  store i32 %9, ptr %25, align 8
  store ptr %18, ptr %30, align 8
  %37 = getelementptr inbounds nuw i8, ptr %0, i64 40
  store i64 %11, ptr %37, align 8
  %.not47 = icmp eq i16 %15, 0
  br i1 %.not47, label %.loopexit, label %.lr.ph

.lr.ph:                                           ; preds = %36
  %38 = getelementptr inbounds nuw i8, ptr %0, i64 16
  %39 = zext i16 %17 to i64
  %40 = shl nuw nsw i64 %39, 4
  %41 = add nuw nsw i64 %40, 65
  %42 = and i64 %41, 2097088
  %wide.trip.count = zext i16 %15 to i64
  br label %43

43:                                               ; preds = %.lr.ph, %43
  %indvars.iv = phi i64 [ 0, %.lr.ph ], [ %indvars.iv.next, %43 ]
  %.046 = phi ptr [ %18, %.lr.ph ], [ %50, %43 ]
  %44 = load ptr, ptr %38, align 8
  %45 = getelementptr inbounds nuw %struct.VuVirtq, ptr %44, i64 %indvars.iv, i32 1
  store ptr %.046, ptr %45, align 8
  %46 = load ptr, ptr %38, align 8
  %47 = getelementptr inbounds nuw %struct.VuVirtq, ptr %46, i64 %indvars.iv, i32 1
  %48 = load ptr, ptr %47, align 8
  %49 = getelementptr inbounds nuw i8, ptr %48, i64 10
  store i16 %17, ptr %49, align 2
  %50 = getelementptr inbounds nuw i8, ptr %.046, i64 %42
  %indvars.iv.next = add nuw nsw i64 %indvars.iv, 1
  %exitcond.not = icmp eq i64 %indvars.iv.next, %wide.trip.count
  br i1 %exitcond.not, label %.loopexit, label %43

.loopexit:                                        ; preds = %43, %36, %20, %._crit_edge
  ret void
}